target datalayout = "e-m:e-p270:32:32-p271:32:32-p272:64:64-i64:64-i128:128-f80:128-n8:16:32:64-S128"
target triple = "x86_64-pc-linux-gnu"

%struct.SHA1_CTX = type { i64, [5 x i32], [64 x i8], i32, i32, i32, i32, i32, ptr, [5 x i32], [5 x i32], [80 x i32], [80 x i32], [80 x [5 x i32]] }

; Function Attrs: nounwind uwtable
define dso_local void @SHA1DCUpdate(ptr noundef %0, ptr noundef %1, i64 noundef %2) #0 {
  %4 = alloca ptr, align 8
  %5 = alloca ptr, align 8
  %6 = alloca i64, align 8
  %7 = alloca i32, align 4
  %8 = alloca i32, align 4
  %9 = alloca i32, align 4
  store ptr %0, ptr %4, align 8, !tbaa !11
  store ptr %1, ptr %5, align 8, !tbaa !21
  store i64 %2, ptr %6, align 8, !tbaa !23
  call void @llvm.lifetime.start.p0(i64 4, ptr %7) #5
  call void @llvm.lifetime.start.p0(i64 4, ptr %8) #5
  %10 = load i64, ptr %6, align 8, !tbaa !23
  %11 = icmp eq i64 %10, 0
  br i1 %11, label %12, label %13

12:                                               ; preds = %3
  store i32 1, ptr %9, align 4
  br label %89

13:                                               ; preds = %3
  %14 = load ptr, ptr %4, align 8, !tbaa !11
  %15 = getelementptr inbounds nuw %struct.SHA1_CTX, ptr %14, i32 0, i32 0
  %16 = load i64, ptr %15, align 8, !tbaa !12
  %17 = and i64 %16, 63
  %18 = trunc i64 %17 to i32
  store i32 %18, ptr %7, align 4, !tbaa !9
  %19 = load i32, ptr %7, align 4, !tbaa !9
  %20 = sub i32 64, %19
  store i32 %20, ptr %8, align 4, !tbaa !9
  %21 = load i32, ptr %7, align 4, !tbaa !9
  %22 = icmp ne i32 %21, 0
  br i1 %22, label %23, label %56

23:                                               ; preds = %13
  %24 = load i64, ptr %6, align 8, !tbaa !23
  %25 = load i32, ptr %8, align 4, !tbaa !9
  %26 = zext i32 %25 to i64
  %27 = icmp uge i64 %24, %26
  br i1 %27, label %28, label %56

28:                                               ; preds = %23
  %29 = load i32, ptr %8, align 4, !tbaa !9
  %30 = zext i32 %29 to i64
  %31 = load ptr, ptr %4, align 8, !tbaa !11
  %32 = getelementptr inbounds nuw %struct.SHA1_CTX, ptr %31, i32 0, i32 0
  %33 = load i64, ptr %32, align 8, !tbaa !12
  %34 = add i64 %33, %30
  store i64 %34, ptr %32, align 8, !tbaa !12
  %35 = load ptr, ptr %4, align 8, !tbaa !11
  %36 = getelementptr inbounds nuw %struct.SHA1_CTX, ptr %35, i32 0, i32 2
  %37 = getelementptr inbounds [64 x i8], ptr %36, i64 0, i64 0
  %38 = load i32, ptr %7, align 4, !tbaa !9
  %39 = zext i32 %38 to i64
  %40 = getelementptr inbounds nuw i8, ptr %37, i64 %39
  %41 = load ptr, ptr %5, align 8, !tbaa !21
  %42 = load i32, ptr %8, align 4, !tbaa !9
  %43 = zext i32 %42 to i64
  call void @llvm.memcpy.p0.p0.i64(ptr align 1 %40, ptr align 1 %41, i64 %43, i1 false)
  %44 = load ptr, ptr %4, align 8, !tbaa !11
  %45 = load ptr, ptr %4, align 8, !tbaa !11
  %46 = getelementptr inbounds nuw %struct.SHA1_CTX, ptr %45, i32 0, i32 2
  %47 = getelementptr inbounds [64 x i8], ptr %46, i64 0, i64 0
  call void @sha1_process(ptr noundef %44, ptr noundef %47)
  %48 = load i32, ptr %8, align 4, !tbaa !9
  %49 = load ptr, ptr %5, align 8, !tbaa !21
  %50 = zext i32 %48 to i64
  %51 = getelementptr inbounds nuw i8, ptr %49, i64 %50
  store ptr %51, ptr %5, align 8, !tbaa !21
  %52 = load i32, ptr %8, align 4, !tbaa !9
  %53 = zext i32 %52 to i64
  %54 = load i64, ptr %6, align 8, !tbaa !23
  %55 = sub i64 %54, %53
  store i64 %55, ptr %6, align 8, !tbaa !23
  store i32 0, ptr %7, align 4, !tbaa !9
  br label %56

56:                                               ; preds = %28, %23, %13
  br label %57

57:                                               ; preds = %60, %56
  %58 = load i64, ptr %6, align 8, !tbaa !23
  %59 = icmp uge i64 %58, 64
  br i1 %59, label %60, label %71

60:                                               ; preds = %57
  %61 = load ptr, ptr %4, align 8, !tbaa !11
  %62 = getelementptr inbounds nuw %struct.SHA1_CTX, ptr %61, i32 0, i32 0
  %63 = load i64, ptr %62, align 8, !tbaa !12
  %64 = add i64 %63, 64
  store i64 %64, ptr %62, align 8, !tbaa !12
  %65 = load ptr, ptr %4, align 8, !tbaa !11
  %66 = load ptr, ptr %5, align 8, !tbaa !21
  call void @sha1_process(ptr noundef %65, ptr noundef %66)
  %67 = load ptr, ptr %5, align 8, !tbaa !21
  %68 = getelementptr inbounds i8, ptr %67, i64 64
  store ptr %68, ptr %5, align 8, !tbaa !21
  %69 = load i64, ptr %6, align 8, !tbaa !23
  %70 = sub i64 %69, 64
  store i64 %70, ptr %6, align 8, !tbaa !23
  br label %57, !llvm.loop !24

71:                                               ; preds = %57
  %72 = load i64, ptr %6, align 8, !tbaa !23
  %73 = icmp ugt i64 %72, 0
  br i1 %73, label %74, label %88

74:                                               ; preds = %71
  %75 = load i64, ptr %6, align 8, !tbaa !23
  %76 = load ptr, ptr %4, align 8, !tbaa !11
  %77 = getelementptr inbounds nuw %struct.SHA1_CTX, ptr %76, i32 0, i32 0
  %78 = load i64, ptr %77, align 8, !tbaa !12
  %79 = add i64 %78, %75
  store i64 %79, ptr %77, align 8, !tbaa !12
  %80 = load ptr, ptr %4, align 8, !tbaa !11
  %81 = getelementptr inbounds nuw %struct.SHA1_CTX, ptr %80, i32 0, i32 2
  %82 = getelementptr inbounds [64 x i8], ptr %81, i64 0, i64 0
  %83 = load i32, ptr %7, align 4, !tbaa !9
  %84 = zext i32 %83 to i64
  %85 = getelementptr inbounds nuw i8, ptr %82, i64 %84
  %86 = load ptr, ptr %5, align 8, !tbaa !21
  %87 = load i64, ptr %6, align 8, !tbaa !23
  call void @llvm.memcpy.p0.p0.i64(ptr align 1 %85, ptr align 1 %86, i64 %87, i1 false)
  br label %88

88:                                               ; preds = %74, %71
  store i32 0, ptr %9, align 4
  br label %89

89:                                               ; preds = %88, %12
  call void @llvm.lifetime.end.p0(i64 4, ptr %8) #5
  call void @llvm.lifetime.end.p0(i64 4, ptr %7) #5
  %90 = load i32, ptr %9, align 4
  switch i32 %90, label %92 [
    i32 0, label %91
    i32 1, label %91
  ]

91:                                               ; preds = %89, %89
  ret void

92:                                               ; preds = %89
  unreachable
}