; Function Attrs: nounwind uwtable
define dso_local void @SHA1DCUpdate(ptr noundef %0, ptr noundef readonly captures(none) %1, i64 noundef %2) local_unnamed_addr #3 {
  %4 = icmp eq i64 %2, 0
  br i1 %4, label %31, label %5

5:                                                ; preds = %3
  %6 = load i64, ptr %0, align 8, !tbaa !8
  %7 = trunc i64 %6 to i32
  %8 = and i32 %7, 63
  %.not = icmp eq i32 %8, 0
  br i1 %.not, label %19, label %9

9:                                                ; preds = %5
  %10 = sub nuw nsw i32 64, %8
  %11 = zext nneg i32 %10 to i64
  %.not37 = icmp ult i64 %2, %11
  br i1 %.not37, label %._crit_edge.thread, label %12

12:                                               ; preds = %9
  %13 = add i64 %6, %11
  store i64 %13, ptr %0, align 8, !tbaa !8
  %14 = getelementptr inbounds nuw i8, ptr %0, i64 28
  %15 = and i64 %6, 63
  %16 = getelementptr inbounds nuw i8, ptr %14, i64 %15
  tail call void @llvm.memcpy.p0.p0.i64(ptr noundef nonnull align 1 dereferenceable(1) %16, ptr noundef nonnull align 1 dereferenceable(1) %1, i64 %11, i1 false)
  tail call fastcc void @sha1_process(ptr noundef nonnull %0, ptr noundef nonnull %14)
  %17 = getelementptr inbounds nuw i8, ptr %1, i64 %11
  %18 = sub nuw i64 %2, %11
  br label %19

19:                                               ; preds = %12, %5
  %.031 = phi i64 [ %18, %12 ], [ %2, %5 ]
  %.0 = phi ptr [ %17, %12 ], [ %1, %5 ]
  %20 = icmp ugt i64 %.031, 63
  br i1 %20, label %.lr.ph, label %._crit_edge

.lr.ph:                                           ; preds = %19, %.lr.ph
  %.140 = phi ptr [ %23, %.lr.ph ], [ %.0, %19 ]
  %.13239 = phi i64 [ %24, %.lr.ph ], [ %.031, %19 ]
  %21 = load i64, ptr %0, align 8, !tbaa !8
  %22 = add i64 %21, 64
  store i64 %22, ptr %0, align 8, !tbaa !8
  tail call fastcc void @sha1_process(ptr noundef nonnull %0, ptr noundef %.140)
  %23 = getelementptr inbounds nuw i8, ptr %.140, i64 64
  %24 = add i64 %.13239, -64
  %25 = icmp ugt i64 %24, 63
  br i1 %25, label %.lr.ph, label %._crit_edge, !llvm.loop !18

._crit_edge:                                      ; preds = %.lr.ph, %19
  %.132.lcssa = phi i64 [ %.031, %19 ], [ %24, %.lr.ph ]
  %.1.lcssa = phi ptr [ %.0, %19 ], [ %23, %.lr.ph ]
  %.not38 = icmp eq i64 %.132.lcssa, 0
  br i1 %.not38, label %31, label %._crit_edge.thread

._crit_edge.thread:                               ; preds = %9, %._crit_edge
  %.1.lcssa53 = phi ptr [ %.1.lcssa, %._crit_edge ], [ %1, %9 ]
  %.132.lcssa52 = phi i64 [ %.132.lcssa, %._crit_edge ], [ %2, %9 ]
  %.0304651 = phi i32 [ 0, %._crit_edge ], [ %8, %9 ]
  %26 = load i64, ptr %0, align 8, !tbaa !8
  %27 = add i64 %26, %.132.lcssa52
  store i64 %27, ptr %0, align 8, !tbaa !8
  %28 = getelementptr inbounds nuw i8, ptr %0, i64 28
  %29 = zext nneg i32 %.0304651 to i64
  %30 = getelementptr inbounds nuw i8, ptr %28, i64 %29
  tail call void @llvm.memcpy.p0.p0.i64(ptr nonnull align 1 %30, ptr align 1 %.1.lcssa53, i64 %.132.lcssa52, i1 false)
  br label %31

31:                                               ; preds = %._crit_edge, %._crit_edge.thread, %3
  ret void
}